target datalayout = "e-m:e-p270:32:32-p271:32:32-p272:64:64-i64:64-i128:128-f80:128-n8:16:32:64-S128"
target triple = "x86_64-pc-linux-gnu"

%"class.sat::literal" = type { i32 }
%class.vector = type { ptr }
%class.svector.5 = type { %class.vector.6 }
%class.vector.6 = type { ptr }
%"class.sat::proof_trim" = type { %"class.sat::solver", %class.svector.27, %class.svector.27, %class.svector.27, %class.uint_set, %class.uint_set, %class.uint_set, ptr, %class.vector.51, %class.vector, %class.map.52, %class.svector.15, %class.uint_set }
%"class.sat::solver" = type { %"class.sat::solver_core", i8, [7 x i8], %"struct.sat::config", %"struct.sat::stats", %class.scoped_ptr, %class.scoped_ptr.0, ptr, %"class.sat::drat", [2 x %"class.sat::clause_allocator"], i8, %class.random_gen, %"class.sat::cleaner", %class.svector.12, %"class.sat::model_converter", i8, %"class.sat::simplifier", %"class.sat::scc", %"class.sat::asymm_branch", %"class.sat::probing", i8, [7 x i8], %"class.sat::mus", i8, i8, [6 x i8], %"class.sat::justification", %"class.sat::literal", %class.ptr_vector.21, %class.ptr_vector.21, i32, %class.svector.5, %class.svector.5, %class.svector.5, %class.svector.5, %class.vector.39, %class.svector.12, %class.svector.40, %class.svector.15, %class.svector.15, %class.svector.15, %class.svector.15, %class.svector.15, %class.svector.5, %class.svector.5, i32, %class.svector.27, %class.svector.5, i32, %class.svector.42, %class.svector.42, %class.svector.42, %class.svector.42, %class.svector.42, i32, double, %class.svector.15, %class.svector.15, %class.svector.15, i8, %class.svector.25, i32, i32, i32, i32, i32, i32, %"struct.sat::backoff", i32, i32, %"struct.sat::backoff", %"struct.sat::backoff", %class.var_queue, i32, i32, i32, %class.ema, %class.ema, %class.ema, %class.ema, %class.ema, %class.svector.27, %class.svector.29, %"class.std::__cxx11::basic_string", i8, i8, %class.visit_helper, %class.svector.44, %class.scoped_limit_trail, %class.stopwatch, %class.params_ref, %"struct.sat::no_drat_params", %class.scoped_ptr.46, %class.svector.27, %"class.sat::literal_set", %"class.sat::literal_set", %class.svector.27, i32, i32, i32, i32, i8, ptr, ptr, %class.statistics, i32, i32, i32, i32, i8, i32, i32, i32, i32, i32, i32, i32, double, i32, double, i8, i8, %class.svector.27, i8, %class.svector.42, i32, i32, i32, %class.svector.27, %class.svector.27, %class.svector.25, %class.svector.5, %class.approx_set_tpl, %class.svector.27, %class.svector.27, %class.vector.11, %class.svector.27, %class.svector.37, %class.u_map, %class.svector.27 }
%"class.sat::solver_core" = type { ptr, ptr }
%"struct.sat::config" = type <{ i64, i32, i32, i32, i8, [3 x i8], i32, i32, double, i32, i8, [3 x i8], i32, i8, [3 x i8], i32, [4 x i8], double, double, i32, i32, double, double, i32, [4 x i8], %class.symbol, double, i32, i32, i8, [3 x i8], i32, i32, i8, [3 x i8], i32, i8, [3 x i8], i32, i8, [3 x i8], i32, i8, i8, [2 x i8], i32, i8, i8, i8, i8, i8, i8, i8, i8, i32, i8, i8, i8, i8, i32, double, i32, [4 x i8], double, double, double, double, i32, i8, i8, [2 x i8], double, i8, i8, [2 x i8], i32, double, i32, i32, i32, i32, i32, i32, i32, i32, i8, i8, i8, i8, i32, i32, i8, i8, i8, i8, i8, i8, i8, [5 x i8], %class.symbol, i8, i8, i8, i8, i8, i8, [2 x i8], i32, i32, i32, i8, [3 x i8], double, double, double, double, double, i8, [7 x i8] }>
%class.symbol = type { ptr }
%"struct.sat::stats" = type { i32, i32, i32, i32, i32, i32, i32, i32, i32, i32, i32, i32, i32, i32, i32, i32, i32, i32, i32, i32, i32 }
%class.scoped_ptr = type { ptr }
%class.scoped_ptr.0 = type { ptr }
%"class.sat::drat" = type { ptr, %class.svector, ptr, %"class.sat::clause_allocator", ptr, ptr, %class.svector.7, %class.svector.9, %class.vector.11, %class.svector.12, i8, i8, i8, i8, i8, %"struct.sat::drat::stats" }
%class.svector = type { %class.vector.1 }
%class.vector.1 = type { ptr }
%"class.sat::clause_allocator" = type { %class.sat_allocator, %class.id_gen }
%class.sat_allocator = type { ptr, i64, %class.ptr_vector, ptr, [65 x %class.ptr_vector.3] }
%class.ptr_vector = type { %class.vector.2 }
%class.vector.2 = type { ptr }
%class.ptr_vector.3 = type { %class.vector.4 }
%class.vector.4 = type { ptr }
%class.id_gen = type { i32, %class.svector.5 }
%class.svector.7 = type { %class.vector.8 }
%class.vector.8 = type { ptr }
%class.svector.9 = type { %class.vector.10 }
%class.vector.10 = type { ptr }
%"struct.sat::drat::stats" = type { i32, i32, i32, i32 }
%class.random_gen = type { i32 }
%"class.sat::cleaner" = type { ptr, i32, i32, i32, i32 }
%"class.sat::model_converter" = type { %class.vector.14, i32, %class.svector.15, ptr, %class.svector.17 }
%class.vector.14 = type { ptr }
%class.svector.17 = type { %class.vector.18 }
%class.vector.18 = type { ptr }
%"class.sat::simplifier" = type { ptr, i32, %"class.sat::use_list", %"class.sat::ext_use_list", %"class.sat::clause_set", %class.svector.23, i32, %class.tracked_uint_set, i8, %"class.sat::tmp_clause", %class.svector.25, i32, i32, i8, i8, i8, i8, i32, i8, i8, i32, i8, i32, i8, i8, i32, i32, i32, i32, i32, i32, i32, i32, i32, i32, i8, i32, i8, i8, i32, i32, i32, i32, i32, i32, i32, i32, i32, i32, i32, i8, i32, %class.ptr_vector.21, %class.svector.27, %class.svector.29, %class.svector.29, %class.svector.27 }
%"class.sat::use_list" = type { %class.vector.19 }
%class.vector.19 = type { ptr }
%"class.sat::ext_use_list" = type { %class.vector.20 }
%class.vector.20 = type { ptr }
%"class.sat::clause_set" = type { %class.svector.5, %class.ptr_vector.21 }
%class.svector.23 = type { %class.vector.24 }
%class.vector.24 = type { ptr }
%class.tracked_uint_set = type { %class.svector.25, %class.svector.5 }
%"class.sat::tmp_clause" = type { ptr }
%"class.sat::scc" = type { ptr, i8, i8, i32, i32, %"class.sat::big" }
%"class.sat::big" = type { ptr, i32, %class.vector.31, %class.svector.15, %class.svector.32, %class.svector.32, %class.svector.27, %class.svector.27, i8, i8, %class.vector.31 }
%class.svector.32 = type { %class.vector.33 }
%class.vector.33 = type { ptr }
%class.vector.31 = type { ptr }
%"class.sat::asymm_branch" = type { ptr, %class.params_ref, i64, %class.random_gen, i32, i32, i8, i32, i32, i8, i8, i64, i32, i32, i32, %class.svector.27, %class.svector.27, %class.svector.34, %class.svector.34, %class.svector.27, %class.svector.27 }
%class.svector.34 = type { %class.vector.35 }
%class.vector.35 = type { ptr }
%"class.sat::probing" = type { ptr, i32, %"class.sat::literal_set", %class.svector.27, i32, i8, i32, i8, i8, i64, i32, %class.vector.36, %class.svector.37, %"class.sat::big" }
%class.vector.36 = type { ptr }
%"class.sat::mus" = type <{ ptr, %class.svector.27, %class.svector.27, i8, [7 x i8], %class.svector.12, i32, [4 x i8] }>
%"class.sat::justification" = type <{ i32, [4 x i8], i64, i32, [4 x i8] }>
%class.ptr_vector.21 = type { %class.vector.22 }
%class.vector.22 = type { ptr }
%class.vector.39 = type { ptr }
%class.svector.12 = type { %class.vector.13 }
%class.vector.13 = type { ptr }
%class.svector.40 = type { %class.vector.41 }
%class.vector.41 = type { ptr }
%"struct.sat::backoff" = type { i32, i32, i32, i32, i32 }
%class.var_queue = type { %class.heap }
%class.heap = type { %"struct.var_queue<svector<unsigned int>>::lt", %class.svector.32, %class.svector.32 }
%"struct.var_queue<svector<unsigned int>>::lt" = type { ptr }
%class.ema = type { double, double, double, i32, i32 }
%class.svector.29 = type { %class.vector.30 }
%class.vector.30 = type { ptr }
%"class.std::__cxx11::basic_string" = type { %"struct.std::__cxx11::basic_string<char>::_Alloc_hider", i64, %union.anon }
%"struct.std::__cxx11::basic_string<char>::_Alloc_hider" = type { ptr }
%union.anon = type { i64, [8 x i8] }
%class.visit_helper = type { %class.svector.5, i32, i32 }
%class.svector.44 = type { %class.vector.45 }
%class.vector.45 = type { ptr }
%class.scoped_limit_trail = type { %class.svector.5, i32, i32 }
%class.stopwatch = type <{ %"class.std::chrono::time_point", %"class.std::chrono::duration", i8, [7 x i8] }>
%"class.std::chrono::time_point" = type { %"class.std::chrono::duration" }
%"class.std::chrono::duration" = type { i64 }
%class.params_ref = type { ptr }
%"struct.sat::no_drat_params" = type { %class.params_ref }
%class.scoped_ptr.46 = type { ptr }
%"class.sat::literal_set" = type { %class.tracked_uint_set }
%class.statistics = type { %class.svector.47, %class.svector.49 }
%class.svector.47 = type { %class.vector.48 }
%class.vector.48 = type { ptr }
%class.svector.49 = type { %class.vector.50 }
%class.vector.50 = type { ptr }
%class.svector.42 = type { %class.vector.43 }
%class.vector.43 = type { ptr }
%class.svector.25 = type { %class.vector.26 }
%class.vector.26 = type { ptr }
%class.approx_set_tpl = type { i32 }
%class.vector.11 = type { ptr }
%class.svector.37 = type { %class.vector.38 }
%class.vector.38 = type { ptr }
%class.u_map = type { %class.map }
%class.map = type { %class.table2map }
%class.table2map = type { %class.core_hashtable }
%class.core_hashtable = type <{ ptr, i32, i32, i32, [4 x i8] }>
%class.svector.27 = type { %class.vector.28 }
%class.vector.28 = type { ptr }
%class.vector.51 = type { ptr }
%class.map.52 = type { %class.table2map.53 }
%class.table2map.53 = type { %class.core_hashtable.54 }
%class.core_hashtable.54 = type <{ ptr, i32, i32, i32, [4 x i8] }>
%class.svector.15 = type { %class.vector.16 }
%class.vector.16 = type { ptr }
%class.uint_set = type { %class.svector.5 }
%struct._key_data = type { %class.svector.27, %"struct.sat::proof_trim::clause_info" }
%"struct.sat::proof_trim::clause_info" = type <{ %class.ptr_vector.21, i32, i8, [3 x i8] }>
%class.default_hash_entry = type { i32, i32, %struct._key_data }

; Function Attrs: mustprogress nounwind uwtable
define linkonce_odr hidden noundef nonnull align 8 dereferenceable(8) ptr @_ZN6vectorIPN3sat6clauseELb0EjEixEj(ptr noundef nonnull align 8 dereferenceable(8) %0, i32 noundef %1) #7 comdat align 2 {
  %3 = alloca ptr, align 8
  %4 = alloca i32, align 4
  store ptr %0, ptr %3, align 8, !tbaa !259
  store i32 %1, ptr %4, align 4, !tbaa !178
  %5 = load ptr, ptr %3, align 8
  %6 = getelementptr inbounds nuw %class.vector.22, ptr %5, i32 0, i32 0
  %7 = load ptr, ptr %6, align 8, !tbaa !261
  %8 = load i32, ptr %4, align 4, !tbaa !178
  %9 = zext i32 %8 to i64
  %10 = getelementptr inbounds nuw ptr, ptr %7, i64 %9
  ret ptr %10
}

; Function Attrs: mustprogress nounwind uwtable
define linkonce_odr hidden noundef i32 @_ZNK6vectorIPN3sat6clauseELb0EjE4sizeEv(ptr noundef nonnull align 8 dereferenceable(8) %0) #7 comdat align 2 {
  %2 = alloca i32, align 4
  %3 = alloca ptr, align 8
  store ptr %0, ptr %3, align 8, !tbaa !259
  %4 = load ptr, ptr %3, align 8
  %5 = getelementptr inbounds nuw %class.vector.22, ptr %4, i32 0, i32 0
  %6 = load ptr, ptr %5, align 8, !tbaa !261
  %7 = icmp eq ptr %6, null
  br i1 %7, label %8, label %9

8:                                                ; preds = %1
  store i32 0, ptr %2, align 4
  br label %14

9:                                                ; preds = %1
  %10 = getelementptr inbounds nuw %class.vector.22, ptr %4, i32 0, i32 0
  %11 = load ptr, ptr %10, align 8, !tbaa !261
  %12 = getelementptr inbounds i32, ptr %11, i64 -1
  %13 = load i32, ptr %12, align 4, !tbaa !178
  store i32 %13, ptr %2, align 4
  br label %14

14:                                               ; preds = %9, %8
  %15 = load i32, ptr %2, align 4
  ret i32 %15
}

; Function Attrs: mustprogress nounwind uwtable
define linkonce_odr hidden void @_ZN6vectorIPN3sat6clauseELb0EjE8pop_backEv(ptr noundef nonnull align 8 dereferenceable(8) %0) #7 comdat align 2 {
  %2 = alloca ptr, align 8
  store ptr %0, ptr %2, align 8, !tbaa !259
  %3 = load ptr, ptr %2, align 8
  %4 = getelementptr inbounds nuw %class.vector.22, ptr %3, i32 0, i32 0
  %5 = load ptr, ptr %4, align 8, !tbaa !261
  %6 = getelementptr inbounds i32, ptr %5, i64 -1
  %7 = load i32, ptr %6, align 4, !tbaa !178
  %8 = add i32 %7, -1
  store i32 %8, ptr %6, align 4, !tbaa !178
  ret void
}

; Function Attrs: mustprogress uwtable
define linkonce_odr hidden noundef nonnull align 8 dereferenceable(8) ptr @_ZN6vectorIPN3sat6clauseELb0EjE4backEv(ptr noundef nonnull align 8 dereferenceable(8) %0) #4 comdat align 2 {
  %2 = alloca ptr, align 8
  store ptr %0, ptr %2, align 8, !tbaa !259
  %3 = load ptr, ptr %2, align 8
  %4 = call noundef i32 @_ZNK6vectorIPN3sat6clauseELb0EjE4sizeEv(ptr noundef nonnull align 8 dereferenceable(8) %3)
  %5 = sub i32 %4, 1
  %6 = call noundef nonnull align 8 dereferenceable(8) ptr @_ZN6vectorIPN3sat6clauseELb0EjEixEj(ptr noundef nonnull align 8 dereferenceable(8) %3, i32 noundef %5)
  ret ptr %6
}

; Function Attrs: mustprogress nounwind uwtable
define linkonce_odr hidden noundef zeroext i1 @_ZNK6vectorIPN3sat6clauseELb0EjE5emptyEv(ptr noundef nonnull align 8 dereferenceable(8) %0) #7 comdat align 2 {
  %2 = alloca ptr, align 8
  store ptr %0, ptr %2, align 8, !tbaa !259
  %3 = load ptr, ptr %2, align 8
  %4 = getelementptr inbounds nuw %class.vector.22, ptr %3, i32 0, i32 0
  %5 = load ptr, ptr %4, align 8, !tbaa !261
  %6 = icmp eq ptr %5, null
  br i1 %6, label %13, label %7

7:                                                ; preds = %1
  %8 = getelementptr inbounds nuw %class.vector.22, ptr %3, i32 0, i32 0
  %9 = load ptr, ptr %8, align 8, !tbaa !261
  %10 = getelementptr inbounds i32, ptr %9, i64 -1
  %11 = load i32, ptr %10, align 4, !tbaa !178
  %12 = icmp eq i32 %11, 0
  br label %13

13:                                               ; preds = %7, %1
  %14 = phi i1 [ true, %1 ], [ %12, %7 ]
  ret i1 %14
}

; Function Attrs: mustprogress nounwind uwtable
define linkonce_odr hidden noundef nonnull align 8 dereferenceable(24) ptr @_ZN18default_hash_entryI9_key_dataI7svectorIN3sat7literalEjENS2_10proof_trim11clause_infoEEE8get_dataEv(ptr noundef nonnull align 8 dereferenceable(32) %0) #7 comdat align 2 {
  %2 = alloca ptr, align 8
  store ptr %0, ptr %2, align 8, !tbaa !257
  %3 = load ptr, ptr %2, align 8
  %4 = getelementptr inbounds nuw %class.default_hash_entry, ptr %3, i32 0, i32 2
  ret ptr %4
}

; Function Attrs: mustprogress nounwind uwtable
define linkonce_odr hidden noundef nonnull align 4 dereferenceable(4) ptr @_ZNK6vectorIN3sat7literalELb0EjEixEj(ptr noundef nonnull align 8 dereferenceable(8) %0, i32 noundef %1) #7 comdat align 2 {
  %3 = alloca ptr, align 8
  %4 = alloca i32, align 4
  store ptr %0, ptr %3, align 8, !tbaa !233
  store i32 %1, ptr %4, align 4, !tbaa !178
  %5 = load ptr, ptr %3, align 8
  %6 = getelementptr inbounds nuw %class.vector.28, ptr %5, i32 0, i32 0
  %7 = load ptr, ptr %6, align 8, !tbaa !235
  %8 = load i32, ptr %4, align 4, !tbaa !178
  %9 = zext i32 %8 to i64
  %10 = getelementptr inbounds nuw %"class.sat::literal", ptr %7, i64 %9
  ret ptr %10
}

; Function Attrs: mustprogress nounwind uwtable
define linkonce_odr hidden noundef i32 @_ZNK6vectorIN3sat7literalELb0EjE4sizeEv(ptr noundef nonnull align 8 dereferenceable(8) %0) #7 comdat align 2 {
  %2 = alloca i32, align 4
  %3 = alloca ptr, align 8
  store ptr %0, ptr %3, align 8, !tbaa !233
  %4 = load ptr, ptr %3, align 8
  %5 = getelementptr inbounds nuw %class.vector.28, ptr %4, i32 0, i32 0
  %6 = load ptr, ptr %5, align 8, !tbaa !235
  %7 = icmp eq ptr %6, null
  br i1 %7, label %8, label %9

8:                                                ; preds = %1
  store i32 0, ptr %2, align 4
  br label %14

9:                                                ; preds = %1
  %10 = getelementptr inbounds nuw %class.vector.28, ptr %4, i32 0, i32 0
  %11 = load ptr, ptr %10, align 8, !tbaa !235
  %12 = getelementptr inbounds i32, ptr %11, i64 -1
  %13 = load i32, ptr %12, align 4, !tbaa !178
  store i32 %13, ptr %2, align 4
  br label %14

14:                                               ; preds = %9, %8
  %15 = load i32, ptr %2, align 4
  ret i32 %15
}

; Function Attrs: mustprogress uwtable
define hidden noundef ptr @_ZN3sat10proof_trim3delERK7svectorINS_7literalEjE(ptr noundef nonnull align 8 dereferenceable(4376) %0, ptr noundef nonnull align 8 dereferenceable(8) %1) #4 align 2 {
  %3 = alloca ptr, align 8
  %4 = alloca ptr, align 8
  %5 = alloca ptr, align 8
  %6 = alloca ptr, align 8
  %7 = alloca %"class.sat::literal", align 4
  %8 = alloca %"class.sat::literal", align 4
  %9 = alloca i32, align 4
  %10 = alloca ptr, align 8
  %11 = alloca ptr, align 8
  store ptr %0, ptr %4, align 8, !tbaa !3
  store ptr %1, ptr %5, align 8, !tbaa !12
  %12 = load ptr, ptr %4, align 8
  call void @llvm.lifetime.start.p0(i64 8, ptr %6) #3
  store ptr null, ptr %6, align 8, !tbaa !182
  %13 = load ptr, ptr %5, align 8, !tbaa !12
  %14 = call noundef i32 @_ZNK6vectorIN3sat7literalELb0EjE4sizeEv(ptr noundef nonnull align 8 dereferenceable(8) %13)
  %15 = icmp eq i32 %14, 2
  br i1 %15, label %16, label %27

16:                                               ; preds = %2
  %17 = getelementptr inbounds nuw %"class.sat::proof_trim", ptr %12, i32 0, i32 0
  %18 = load ptr, ptr %5, align 8, !tbaa !12
  %19 = call noundef nonnull align 4 dereferenceable(4) ptr @_ZNK6vectorIN3sat7literalELb0EjEixEj(ptr noundef nonnull align 8 dereferenceable(8) %18, i32 noundef 0)
  call void @llvm.memcpy.p0.p0.i64(ptr align 4 %7, ptr align 4 %19, i64 4, i1 false), !tbaa.struct !208
  %20 = load ptr, ptr %5, align 8, !tbaa !12
  %21 = call noundef nonnull align 4 dereferenceable(4) ptr @_ZNK6vectorIN3sat7literalELb0EjEixEj(ptr noundef nonnull align 8 dereferenceable(8) %20, i32 noundef 1)
  call void @llvm.memcpy.p0.p0.i64(ptr align 4 %8, ptr align 4 %21, i64 4, i1 false), !tbaa.struct !208
  %22 = getelementptr inbounds nuw %"class.sat::literal", ptr %7, i32 0, i32 0
  %23 = load i32, ptr %22, align 4
  %24 = getelementptr inbounds nuw %"class.sat::literal", ptr %8, i32 0, i32 0
  %25 = load i32, ptr %24, align 4
  call void @_ZN3sat6solver17detach_bin_clauseENS_7literalES1_b(ptr noundef nonnull align 8 dereferenceable(4264) %17, i32 %23, i32 %25, i1 noundef zeroext true)
  %26 = load ptr, ptr %6, align 8, !tbaa !182
  store ptr %26, ptr %3, align 8
  store i32 1, ptr %9, align 4
  br label %54

27:                                               ; preds = %2
  call void @llvm.lifetime.start.p0(i64 8, ptr %10) #3
  %28 = getelementptr inbounds nuw %"class.sat::proof_trim", ptr %12, i32 0, i32 10
  %29 = load ptr, ptr %5, align 8, !tbaa !12
  %30 = call noundef ptr @_ZNK9table2mapI17default_map_entryI7svectorIN3sat7literalEjENS2_10proof_trim11clause_infoEENS5_4hashENS5_2eqEE9find_coreERKS4_(ptr noundef nonnull align 8 dereferenceable(24) %28, ptr noundef nonnull align 8 dereferenceable(8) %29)
  store ptr %30, ptr %10, align 8, !tbaa !230
  %31 = load ptr, ptr %10, align 8, !tbaa !230
  %32 = icmp ne ptr %31, null
  br i1 %32, label %35, label %33

33:                                               ; preds = %27
  %34 = load ptr, ptr %6, align 8, !tbaa !182
  store ptr %34, ptr %3, align 8
  store i32 1, ptr %9, align 4
  br label %53

35:                                               ; preds = %27
  call void @llvm.lifetime.start.p0(i64 8, ptr %11) #3
  %36 = load ptr, ptr %10, align 8, !tbaa !230
  %37 = call noundef nonnull align 8 dereferenceable(24) ptr @_ZN18default_hash_entryI9_key_dataI7svectorIN3sat7literalEjENS2_10proof_trim11clause_infoEEE8get_dataEv(ptr noundef nonnull align 8 dereferenceable(32) %36)
  %38 = getelementptr inbounds nuw %struct._key_data, ptr %37, i32 0, i32 1
  store ptr %38, ptr %11, align 8, !tbaa !231
  %39 = load ptr, ptr %11, align 8, !tbaa !231
  %40 = getelementptr inbounds nuw %"struct.sat::proof_trim::clause_info", ptr %39, i32 0, i32 0
  %41 = call noundef zeroext i1 @_ZNK6vectorIPN3sat6clauseELb0EjE5emptyEv(ptr noundef nonnull align 8 dereferenceable(8) %40)
  br i1 %41, label %51, label %42

42:                                               ; preds = %35
  %43 = load ptr, ptr %11, align 8, !tbaa !231
  %44 = getelementptr inbounds nuw %"struct.sat::proof_trim::clause_info", ptr %43, i32 0, i32 0
  %45 = call noundef nonnull align 8 dereferenceable(8) ptr @_ZN6vectorIPN3sat6clauseELb0EjE4backEv(ptr noundef nonnull align 8 dereferenceable(8) %44)
  %46 = load ptr, ptr %45, align 8, !tbaa !182
  store ptr %46, ptr %6, align 8, !tbaa !182
  %47 = getelementptr inbounds nuw %"class.sat::proof_trim", ptr %12, i32 0, i32 0
  %48 = load ptr, ptr %6, align 8, !tbaa !182
  call void @_ZN3sat6solver13detach_clauseERNS_6clauseE(ptr noundef nonnull align 8 dereferenceable(4264) %47, ptr noundef nonnull align 4 dereferenceable(20) %48)
  %49 = load ptr, ptr %11, align 8, !tbaa !231
  %50 = getelementptr inbounds nuw %"struct.sat::proof_trim::clause_info", ptr %49, i32 0, i32 0
  call void @_ZN6vectorIPN3sat6clauseELb0EjE8pop_backEv(ptr noundef nonnull align 8 dereferenceable(8) %50)
  br label %51

51:                                               ; preds = %42, %35
  %52 = load ptr, ptr %6, align 8, !tbaa !182
  store ptr %52, ptr %3, align 8
  store i32 1, ptr %9, align 4
  call void @llvm.lifetime.end.p0(i64 8, ptr %11) #3
  br label %53

53:                                               ; preds = %51, %33
  call void @llvm.lifetime.end.p0(i64 8, ptr %10) #3
  br label %54

54:                                               ; preds = %53, %16
  call void @llvm.lifetime.end.p0(i64 8, ptr %6) #3
  %55 = load ptr, ptr %3, align 8
  ret ptr %55
}

; Function Attrs: mustprogress uwtable
define hidden void @_ZN3sat10proof_trim3delERK7svectorINS_7literalEjEPNS_6clauseE(ptr noundef nonnull align 8 dereferenceable(4376) %0, ptr noundef nonnull align 8 dereferenceable(8) %1, ptr noundef %2) #4 align 2 {
  %4 = alloca ptr, align 8
  %5 = alloca ptr, align 8
  %6 = alloca ptr, align 8
  store ptr %0, ptr %4, align 8, !tbaa !3
  store ptr %1, ptr %5, align 8, !tbaa !12
  store ptr %2, ptr %6, align 8, !tbaa !182
  %7 = load ptr, ptr %4, align 8
  %8 = load ptr, ptr %6, align 8, !tbaa !182
  %9 = icmp ne ptr %8, null
  br i1 %9, label %10, label %13

10:                                               ; preds = %3
  %11 = getelementptr inbounds nuw %"class.sat::proof_trim", ptr %7, i32 0, i32 0
  %12 = load ptr, ptr %6, align 8, !tbaa !182
  call void @_ZN3sat6solver13detach_clauseERNS_6clauseE(ptr noundef nonnull align 8 dereferenceable(4264) %11, ptr noundef nonnull align 4 dereferenceable(20) %12)
  br label %16

13:                                               ; preds = %3
  %14 = load ptr, ptr %5, align 8, !tbaa !12
  %15 = call noundef ptr @_ZN3sat10proof_trim3delERK7svectorINS_7literalEjE(ptr noundef nonnull align 8 dereferenceable(4376) %7, ptr noundef nonnull align 8 dereferenceable(8) %14)
  br label %16

16:                                               ; preds = %13, %10
  ret void
}