; Function Attrs: mustprogress uwtable
define hidden void @_ZN3sat10proof_trim3delERK7svectorINS_7literalEjEPNS_6clauseE(ptr noundef nonnull align 8 dereferenceable(4376) %0, ptr noundef nonnull align 8 dereferenceable(8) %1, ptr noundef %2) local_unnamed_addr #3 align 2 {
  %.not = icmp eq ptr %2, null
  br i1 %.not, label %5, label %4

4:                                                ; preds = %3
  tail call void @_ZN3sat6solver13detach_clauseERNS_6clauseE(ptr noundef nonnull align 8 dereferenceable(4264) %0, ptr noundef nonnull align 4 dereferenceable(20) %2)
  br label %_ZN3sat10proof_trim3delERK7svectorINS_7literalEjE.exit

5:                                                ; preds = %3
  %6 = load ptr, ptr %1, align 8, !tbaa !32
  %7 = icmp eq ptr %6, null
  br i1 %7, label %_ZNK6vectorIN3sat7literalELb0EjE4sizeEv.exit.thread.i, label %_ZNK6vectorIN3sat7literalELb0EjE4sizeEv.exit.i

_ZNK6vectorIN3sat7literalELb0EjE4sizeEv.exit.i:   ; preds = %5
  %8 = getelementptr inbounds i8, ptr %6, i64 -4
  %9 = load i32, ptr %8, align 4, !tbaa !9
  %10 = icmp eq i32 %9, 2
  br i1 %10, label %11, label %_ZNK6vectorIN3sat7literalELb0EjE4sizeEv.exit.thread.i

11:                                               ; preds = %_ZNK6vectorIN3sat7literalELb0EjE4sizeEv.exit.i
  %.sroa.05.0.copyload.i = load i32, ptr %6, align 4, !tbaa !9
  %12 = getelementptr inbounds nuw i8, ptr %6, i64 4
  %.sroa.0.0.copyload.i = load i32, ptr %12, align 4, !tbaa !9
  tail call void @_ZN3sat6solver17detach_bin_clauseENS_7literalES1_b(ptr noundef nonnull align 8 dereferenceable(4376) %0, i32 %.sroa.05.0.copyload.i, i32 %.sroa.0.0.copyload.i, i1 noundef zeroext true)
  br label %_ZN3sat10proof_trim3delERK7svectorINS_7literalEjE.exit

_ZNK6vectorIN3sat7literalELb0EjE4sizeEv.exit.thread.i: ; preds = %_ZNK6vectorIN3sat7literalELb0EjE4sizeEv.exit.i, %5
  %13 = getelementptr inbounds nuw i8, ptr %0, i64 4336
  %14 = tail call noundef ptr @_ZNK9table2mapI17default_map_entryI7svectorIN3sat7literalEjENS2_10proof_trim11clause_infoEENS5_4hashENS5_2eqEE9find_coreERKS4_(ptr noundef nonnull align 8 dereferenceable(24) %13, ptr noundef nonnull align 8 dereferenceable(8) %1)
  %.not.i = icmp eq ptr %14, null
  br i1 %.not.i, label %_ZN3sat10proof_trim3delERK7svectorINS_7literalEjE.exit, label %15

15:                                               ; preds = %_ZNK6vectorIN3sat7literalELb0EjE4sizeEv.exit.thread.i
  %16 = getelementptr inbounds nuw i8, ptr %14, i64 16
  %17 = load ptr, ptr %16, align 8, !tbaa !47
  %18 = icmp eq ptr %17, null
  br i1 %18, label %_ZN3sat10proof_trim3delERK7svectorINS_7literalEjE.exit, label %_ZNK6vectorIPN3sat6clauseELb0EjE5emptyEv.exit.i

_ZNK6vectorIPN3sat6clauseELb0EjE5emptyEv.exit.i:  ; preds = %15
  %19 = getelementptr inbounds i8, ptr %17, i64 -4
  %20 = load i32, ptr %19, align 4, !tbaa !9
  %21 = icmp eq i32 %20, 0
  br i1 %21, label %_ZN3sat10proof_trim3delERK7svectorINS_7literalEjE.exit, label %_ZN6vectorIPN3sat6clauseELb0EjE4backEv.exit.i

_ZN6vectorIPN3sat6clauseELb0EjE4backEv.exit.i:    ; preds = %_ZNK6vectorIPN3sat6clauseELb0EjE5emptyEv.exit.i
  %22 = add i32 %20, -1
  %23 = zext i32 %22 to i64
  %24 = getelementptr inbounds nuw ptr, ptr %17, i64 %23
  %25 = load ptr, ptr %24, align 8, !tbaa !38
  tail call void @_ZN3sat6solver13detach_clauseERNS_6clauseE(ptr noundef nonnull align 8 dereferenceable(4376) %0, ptr noundef nonnull align 4 dereferenceable(20) %25)
  %26 = load ptr, ptr %16, align 8, !tbaa !47
  %27 = getelementptr inbounds i8, ptr %26, i64 -4
  %28 = load i32, ptr %27, align 4, !tbaa !9
  %29 = add i32 %28, -1
  store i32 %29, ptr %27, align 4, !tbaa !9
  br label %_ZN3sat10proof_trim3delERK7svectorINS_7literalEjE.exit

_ZN3sat10proof_trim3delERK7svectorINS_7literalEjE.exit: ; preds = %_ZN6vectorIPN3sat6clauseELb0EjE4backEv.exit.i, %_ZNK6vectorIPN3sat6clauseELb0EjE5emptyEv.exit.i, %15, %_ZNK6vectorIN3sat7literalELb0EjE4sizeEv.exit.thread.i, %11, %4
  ret void
}